target datalayout = "e-m:e-p270:32:32-p271:32:32-p272:64:64-i64:64-i128:128-f80:128-n8:16:32:64-S128"
target triple = "x86_64-unknown-linux-gnu"

%"class.std::_Function_base" = type { %"union.std::_Any_data", ptr }
%"union.std::_Any_data" = type { %"union.std::_Nocopy_types" }
%"union.std::_Nocopy_types" = type { { i64, i64 } }
%class.anon.39 = type { ptr, %"class.std::function.37", %"class.std::function.37" }
%"class.std::function.37" = type { %"class.std::_Function_base", ptr }
%"struct.std::thread::_State_impl" = type { %"struct.std::thread::_State", %"struct.std::thread::_Invoker" }
%"struct.std::thread::_State" = type { ptr }
%"struct.std::thread::_Invoker" = type { %"class.std::tuple.57" }
%"class.std::tuple.57" = type { %"struct.std::_Tuple_impl.58" }
%"struct.std::_Tuple_impl.58" = type { %"struct.std::_Head_base.59" }
%"struct.std::_Head_base.59" = type { %class.anon.39 }

; Function Attrs: mustprogress nounwind uwtable
define linkonce_odr dso_local noundef zeroext i1 @_ZNKSt14_Function_base8_M_emptyEv(ptr noundef nonnull align 8 dereferenceable(24) %this) #2 comdat align 2 {
entry:
  %this.addr = alloca ptr, align 8
  store ptr %this, ptr %this.addr, align 8
  %this1 = load ptr, ptr %this.addr, align 8
  %_M_manager = getelementptr inbounds %"class.std::_Function_base", ptr %this1, i32 0, i32 1
  %0 = load ptr, ptr %_M_manager, align 8
  %tobool = icmp ne ptr %0, null
  %lnot = xor i1 %tobool, true
  ret i1 %lnot
}

; Function Attrs: mustprogress uwtable
define dso_local void @_ZN6spdlog7details11thread_pool12worker_loop_Ev(ptr noundef nonnull align 8 dereferenceable(224) %this) #0 align 2 {
entry:
  %this.addr = alloca ptr, align 8
  store ptr %this, ptr %this.addr, align 8
  %this1 = load ptr, ptr %this.addr, align 8
  br label %while.cond

while.cond:                                       ; preds = %while.body, %entry
  %call = call noundef zeroext i1 @_ZN6spdlog7details11thread_pool17process_next_msg_Ev(ptr noundef nonnull align 8 dereferenceable(224) %this1)
  br i1 %call, label %while.body, label %while.end

while.body:                                       ; preds = %while.cond
  br label %while.cond, !llvm.loop !14

while.end:                                        ; preds = %while.cond
  ret void
}

; Function Attrs: mustprogress uwtable
define linkonce_odr dso_local void @_ZNKSt8functionIFvvEEclEv(ptr noundef nonnull align 8 dereferenceable(32) %this) #0 comdat align 2 {
entry:
  %this.addr = alloca ptr, align 8
  store ptr %this, ptr %this.addr, align 8
  %this1 = load ptr, ptr %this.addr, align 8
  %call = call noundef zeroext i1 @_ZNKSt14_Function_base8_M_emptyEv(ptr noundef nonnull align 8 dereferenceable(24) %this1)
  br i1 %call, label %if.then, label %if.end

if.then:                                          ; preds = %entry
  call void @_ZSt25__throw_bad_function_callv() #15
  unreachable

if.end:                                           ; preds = %entry
  %_M_invoker = getelementptr inbounds %"class.std::function.37", ptr %this1, i32 0, i32 1
  %0 = load ptr, ptr %_M_invoker, align 8
  %_M_functor = getelementptr inbounds %"class.std::_Function_base", ptr %this1, i32 0, i32 0
  call void %0(ptr noundef nonnull align 8 dereferenceable(16) %_M_functor)
  ret void
}

; Function Attrs: mustprogress nounwind uwtable
define internal noundef nonnull align 8 dereferenceable(72) ptr @"_ZNSt10_Head_baseILm0EZN6spdlog7details11thread_poolC1EmmSt8functionIFvvEES5_E3$_0Lb0EE7_M_headERS7_"(ptr noundef nonnull align 8 dereferenceable(72) %__b) #2 align 2 {
entry:
  %__b.addr = alloca ptr, align 8
  store ptr %__b, ptr %__b.addr, align 8
  %0 = load ptr, ptr %__b.addr, align 8
  %_M_head_impl = getelementptr inbounds %"struct.std::_Head_base.59", ptr %0, i32 0, i32 0
  ret ptr %_M_head_impl
}

; Function Attrs: mustprogress uwtable
define internal void @"_ZZN6spdlog7details11thread_poolC1EmmSt8functionIFvvEES4_ENK3$_0clEv"(ptr noundef nonnull align 8 dereferenceable(72) %this) #0 align 2 {
entry:
  %this.addr = alloca ptr, align 8
  store ptr %this, ptr %this.addr, align 8
  %this1 = load ptr, ptr %this.addr, align 8
  %0 = getelementptr inbounds %class.anon.39, ptr %this1, i32 0, i32 0
  %1 = load ptr, ptr %0, align 8
  %2 = getelementptr inbounds %class.anon.39, ptr %this1, i32 0, i32 1
  call void @_ZNKSt8functionIFvvEEclEv(ptr noundef nonnull align 8 dereferenceable(32) %2)
  call void @_ZN6spdlog7details11thread_pool12worker_loop_Ev(ptr noundef nonnull align 8 dereferenceable(224) %1)
  %3 = getelementptr inbounds %class.anon.39, ptr %this1, i32 0, i32 2
  call void @_ZNKSt8functionIFvvEEclEv(ptr noundef nonnull align 8 dereferenceable(32) %3)
  ret void
}

; Function Attrs: mustprogress nounwind uwtable
define internal noundef nonnull align 8 dereferenceable(72) ptr @"_ZNSt11_Tuple_implILm0EJZN6spdlog7details11thread_poolC1EmmSt8functionIFvvEES5_E3$_0EE7_M_headERS7_"(ptr noundef nonnull align 8 dereferenceable(72) %__t) #2 align 2 {
entry:
  %__t.addr = alloca ptr, align 8
  store ptr %__t, ptr %__t.addr, align 8
  %0 = load ptr, ptr %__t.addr, align 8
  %call = call noundef nonnull align 8 dereferenceable(72) ptr @"_ZNSt10_Head_baseILm0EZN6spdlog7details11thread_poolC1EmmSt8functionIFvvEES5_E3$_0Lb0EE7_M_headERS7_"(ptr noundef nonnull align 8 dereferenceable(72) %0) #14
  ret ptr %call
}

; Function Attrs: mustprogress uwtable
define internal void @"_ZSt13__invoke_implIvZN6spdlog7details11thread_poolC1EmmSt8functionIFvvEES5_E3$_0JEET_St14__invoke_otherOT0_DpOT1_"(ptr noundef nonnull align 8 dereferenceable(72) %__f) #0 {
entry:
  %__f.addr = alloca ptr, align 8
  store ptr %__f, ptr %__f.addr, align 8
  %0 = load ptr, ptr %__f.addr, align 8
  call void @"_ZZN6spdlog7details11thread_poolC1EmmSt8functionIFvvEES4_ENK3$_0clEv"(ptr noundef nonnull align 8 dereferenceable(72) %0)
  ret void
}

; Function Attrs: mustprogress nounwind uwtable
define internal noundef nonnull align 8 dereferenceable(72) ptr @"_ZSt12__get_helperILm0EZN6spdlog7details11thread_poolC1EmmSt8functionIFvvEES5_E3$_0JEERT0_RSt11_Tuple_implIXT_EJS7_DpT1_EE"(ptr noundef nonnull align 8 dereferenceable(72) %__t) #2 {
entry:
  %__t.addr = alloca ptr, align 8
  store ptr %__t, ptr %__t.addr, align 8
  %0 = load ptr, ptr %__t.addr, align 8
  %call = call noundef nonnull align 8 dereferenceable(72) ptr @"_ZNSt11_Tuple_implILm0EJZN6spdlog7details11thread_poolC1EmmSt8functionIFvvEES5_E3$_0EE7_M_headERS7_"(ptr noundef nonnull align 8 dereferenceable(72) %0) #14
  ret ptr %call
}

; Function Attrs: mustprogress uwtable
define internal void @"_ZSt8__invokeIZN6spdlog7details11thread_poolC1EmmSt8functionIFvvEES5_E3$_0JEENSt15__invoke_resultIT_JDpT0_EE4typeEOS8_DpOS9_"(ptr noundef nonnull align 8 dereferenceable(72) %__fn) #0 {
entry:
  %__fn.addr = alloca ptr, align 8
  store ptr %__fn, ptr %__fn.addr, align 8
  %0 = load ptr, ptr %__fn.addr, align 8
  call void @"_ZSt13__invoke_implIvZN6spdlog7details11thread_poolC1EmmSt8functionIFvvEES5_E3$_0JEET_St14__invoke_otherOT0_DpOT1_"(ptr noundef nonnull align 8 dereferenceable(72) %0)
  ret void
}

; Function Attrs: mustprogress nounwind uwtable
define internal noundef nonnull align 8 dereferenceable(72) ptr @"_ZSt3getILm0EJZN6spdlog7details11thread_poolC1EmmSt8functionIFvvEES5_E3$_0EEONSt13tuple_elementIXT_ESt5tupleIJDpT0_EEE4typeEOSB_"(ptr noundef nonnull align 8 dereferenceable(72) %__t) #2 {
entry:
  %__t.addr = alloca ptr, align 8
  store ptr %__t, ptr %__t.addr, align 8
  %0 = load ptr, ptr %__t.addr, align 8
  %call = call noundef nonnull align 8 dereferenceable(72) ptr @"_ZSt12__get_helperILm0EZN6spdlog7details11thread_poolC1EmmSt8functionIFvvEES5_E3$_0JEERT0_RSt11_Tuple_implIXT_EJS7_DpT1_EE"(ptr noundef nonnull align 8 dereferenceable(72) %0) #14
  ret ptr %call
}

; Function Attrs: mustprogress uwtable
define internal void @"_ZNSt6thread8_InvokerISt5tupleIJZN6spdlog7details11thread_poolC1EmmSt8functionIFvvEES7_E3$_0EEE9_M_invokeIJLm0EEEEvSt12_Index_tupleIJXspT_EEE"(ptr noundef nonnull align 8 dereferenceable(72) %this) #0 align 2 {
entry:
  %this.addr = alloca ptr, align 8
  store ptr %this, ptr %this.addr, align 8
  %this1 = load ptr, ptr %this.addr, align 8
  %_M_t = getelementptr inbounds %"struct.std::thread::_Invoker", ptr %this1, i32 0, i32 0
  %call = call noundef nonnull align 8 dereferenceable(72) ptr @"_ZSt3getILm0EJZN6spdlog7details11thread_poolC1EmmSt8functionIFvvEES5_E3$_0EEONSt13tuple_elementIXT_ESt5tupleIJDpT0_EEE4typeEOSB_"(ptr noundef nonnull align 8 dereferenceable(72) %_M_t) #14
  call void @"_ZSt8__invokeIZN6spdlog7details11thread_poolC1EmmSt8functionIFvvEES5_E3$_0JEENSt15__invoke_resultIT_JDpT0_EE4typeEOS8_DpOS9_"(ptr noundef nonnull align 8 dereferenceable(72) %call)
  ret void
}

; Function Attrs: mustprogress uwtable
define internal void @"_ZNSt6thread8_InvokerISt5tupleIJZN6spdlog7details11thread_poolC1EmmSt8functionIFvvEES7_E3$_0EEEclEv"(ptr noundef nonnull align 8 dereferenceable(72) %this) #0 align 2 {
entry:
  %this.addr = alloca ptr, align 8
  store ptr %this, ptr %this.addr, align 8
  %this1 = load ptr, ptr %this.addr, align 8
  call void @"_ZNSt6thread8_InvokerISt5tupleIJZN6spdlog7details11thread_poolC1EmmSt8functionIFvvEES7_E3$_0EEE9_M_invokeIJLm0EEEEvSt12_Index_tupleIJXspT_EEE"(ptr noundef nonnull align 8 dereferenceable(72) %this1)
  ret void
}

; Function Attrs: mustprogress uwtable
define internal void @"_ZNSt6thread11_State_implINS_8_InvokerISt5tupleIJZN6spdlog7details11thread_poolC1EmmSt8functionIFvvEES8_E3$_0EEEEE6_M_runEv"(ptr noundef nonnull align 8 dereferenceable(80) %this) unnamed_addr #0 align 2 {
entry:
  %this.addr = alloca ptr, align 8
  store ptr %this, ptr %this.addr, align 8
  %this1 = load ptr, ptr %this.addr, align 8
  %_M_func = getelementptr inbounds %"struct.std::thread::_State_impl", ptr %this1, i32 0, i32 1
  call void @"_ZNSt6thread8_InvokerISt5tupleIJZN6spdlog7details11thread_poolC1EmmSt8functionIFvvEES7_E3$_0EEEclEv"(ptr noundef nonnull align 8 dereferenceable(72) %_M_func)
  ret void
}