; Function Attrs: mustprogress uwtable
define internal void @"_ZNSt6thread11_State_implINS_8_InvokerISt5tupleIJZN6spdlog7details11thread_poolC1EmmSt8functionIFvvEES8_E3$_0EEEEE6_M_runEv"(ptr noundef nonnull align 8 dereferenceable(80) %this) unnamed_addr #0 align 2 {
entry:
  %_M_func = getelementptr inbounds i8, ptr %this, i64 8
  %0 = load ptr, ptr %_M_func, align 8
  %_M_manager.i.i.i.i.i.i.i = getelementptr inbounds i8, ptr %this, i64 32
  %1 = load ptr, ptr %_M_manager.i.i.i.i.i.i.i, align 8
  %tobool.not.i.i.i.i.i.i.i = icmp eq ptr %1, null
  br i1 %tobool.not.i.i.i.i.i.i.i, label %if.then.i.i.i.i.i.i, label %_ZNKSt8functionIFvvEEclEv.exit.i.i.i.i.i

if.then.i.i.i.i.i.i:                              ; preds = %entry
  tail call void @_ZSt25__throw_bad_function_callv() #19
  unreachable

_ZNKSt8functionIFvvEEclEv.exit.i.i.i.i.i:         ; preds = %entry
  %2 = getelementptr inbounds i8, ptr %this, i64 16
  %_M_invoker.i.i.i.i.i.i = getelementptr inbounds i8, ptr %this, i64 40
  %3 = load ptr, ptr %_M_invoker.i.i.i.i.i.i, align 8
  tail call void %3(ptr noundef nonnull align 8 dereferenceable(16) %2)
  br label %while.cond.i.i.i.i.i.i

while.cond.i.i.i.i.i.i:                           ; preds = %while.cond.i.i.i.i.i.i, %_ZNKSt8functionIFvvEEclEv.exit.i.i.i.i.i
  %call.i.i.i.i.i.i = tail call noundef zeroext i1 @_ZN6spdlog7details11thread_pool17process_next_msg_Ev(ptr noundef nonnull align 8 dereferenceable(224) %0)
  br i1 %call.i.i.i.i.i.i, label %while.cond.i.i.i.i.i.i, label %_ZN6spdlog7details11thread_pool12worker_loop_Ev.exit.i.i.i.i.i, !llvm.loop !35

_ZN6spdlog7details11thread_pool12worker_loop_Ev.exit.i.i.i.i.i: ; preds = %while.cond.i.i.i.i.i.i
  %_M_manager.i.i1.i.i.i.i.i = getelementptr inbounds i8, ptr %this, i64 64
  %4 = load ptr, ptr %_M_manager.i.i1.i.i.i.i.i, align 8
  %tobool.not.i.i2.i.i.i.i.i = icmp eq ptr %4, null
  br i1 %tobool.not.i.i2.i.i.i.i.i, label %if.then.i4.i.i.i.i.i, label %"_ZNSt6thread8_InvokerISt5tupleIJZN6spdlog7details11thread_poolC1EmmSt8functionIFvvEES7_E3$_0EEEclEv.exit"

if.then.i4.i.i.i.i.i:                             ; preds = %_ZN6spdlog7details11thread_pool12worker_loop_Ev.exit.i.i.i.i.i
  tail call void @_ZSt25__throw_bad_function_callv() #19
  unreachable

"_ZNSt6thread8_InvokerISt5tupleIJZN6spdlog7details11thread_poolC1EmmSt8functionIFvvEES7_E3$_0EEEclEv.exit": ; preds = %_ZN6spdlog7details11thread_pool12worker_loop_Ev.exit.i.i.i.i.i
  %5 = getelementptr inbounds i8, ptr %this, i64 48
  %_M_invoker.i3.i.i.i.i.i = getelementptr inbounds i8, ptr %this, i64 72
  %6 = load ptr, ptr %_M_invoker.i3.i.i.i.i.i, align 8
  tail call void %6(ptr noundef nonnull align 8 dereferenceable(16) %5)
  ret void
}